target datalayout = "e-m:e-p270:32:32-p271:32:32-p272:64:64-i64:64-i128:128-f80:128-n8:16:32:64-S128"
target triple = "x86_64-pc-linux-gnu"

%struct.rb_data_type_struct = type { ptr, %struct.anon, ptr, ptr, i64 }
%struct.anon = type { ptr, ptr, ptr, ptr, [1 x ptr] }
%struct.strscanner = type { i64, i64, i64, i64, %struct.re_registers, i64, i8 }
%struct.re_registers = type { i32, i32, ptr, ptr }
%struct.RBasic = type { i64, i64 }
%struct.named_captures_data = type { i64, i64 }
%struct.RRegexp = type { %struct.RBasic, ptr, i64, i64 }

@strscanner_type = internal constant %struct.rb_data_type_struct { ptr @.str.2, %struct.anon { ptr @strscan_mark, ptr @strscan_free, ptr @strscan_memsize, ptr null, [1 x ptr] zeroinitializer }, ptr null, ptr null, i64 1 }, align 8
@rb_eArgError = external global i64, align 8
@.str.66 = private unnamed_addr constant [35 x i8] c"uninitialized StringScanner object\00", align 1

; Function Attrs: inlinehint nounwind sspstrong willreturn memory(none) uwtable
define internal zeroext i1 @RB_NIL_P(i64 noundef %0) #7 {
  %2 = alloca i64, align 8
  store i64 %0, ptr %2, align 8, !tbaa !6
  %3 = load i64, ptr %2, align 8, !tbaa !6
  %4 = icmp eq i64 %3, 4
  ret i1 %4
}

; Function Attrs: nounwind sspstrong uwtable
define internal ptr @check_strscan(i64 noundef %0) #0 {
  %2 = alloca i64, align 8
  store i64 %0, ptr %2, align 8, !tbaa !6
  %3 = load i64, ptr %2, align 8, !tbaa !6
  %4 = call ptr @rb_check_typeddata(i64 noundef %3, ptr noundef @strscanner_type)
  ret ptr %4
}

; Function Attrs: nounwind sspstrong uwtable
define internal i64 @strscan_named_captures(i64 noundef %0) #0 {
  %2 = alloca i64, align 8
  %3 = alloca ptr, align 8
  %4 = alloca %struct.named_captures_data, align 8
  store i64 %0, ptr %2, align 8, !tbaa !6
  call void @llvm.lifetime.start.p0(i64 8, ptr %3) #23
  call void @llvm.lifetime.start.p0(i64 16, ptr %4) #23
  br label %5

5:                                                ; preds = %1
  %6 = load i64, ptr %2, align 8, !tbaa !6
  %7 = call ptr @check_strscan(i64 noundef %6)
  store ptr %7, ptr %3, align 8, !tbaa !15
  %8 = load ptr, ptr %3, align 8, !tbaa !15
  %9 = getelementptr inbounds nuw %struct.strscanner, ptr %8, i32 0, i32 1
  %10 = load i64, ptr %9, align 8, !tbaa !22
  %11 = call zeroext i1 @RB_NIL_P(i64 noundef %10) #24
  br i1 %11, label %12, label %14

12:                                               ; preds = %5
  %13 = load i64, ptr @rb_eArgError, align 8, !tbaa !6
  call void (i64, ptr, ...) @rb_raise(i64 noundef %13, ptr noundef @.str.66) #27
  unreachable

14:                                               ; preds = %5
  br label %15

15:                                               ; preds = %14
  br label %16

16:                                               ; preds = %15
  %17 = load i64, ptr %2, align 8, !tbaa !6
  %18 = getelementptr inbounds nuw %struct.named_captures_data, ptr %4, i32 0, i32 0
  store i64 %17, ptr %18, align 8, !tbaa !43
  %19 = call i64 @rb_hash_new()
  %20 = getelementptr inbounds nuw %struct.named_captures_data, ptr %4, i32 0, i32 1
  store i64 %19, ptr %20, align 8, !tbaa !45
  %21 = load ptr, ptr %3, align 8, !tbaa !15
  %22 = getelementptr inbounds nuw %struct.strscanner, ptr %21, i32 0, i32 5
  %23 = load i64, ptr %22, align 8, !tbaa !23
  %24 = call zeroext i1 @RB_NIL_P(i64 noundef %23) #24
  br i1 %24, label %33, label %25

25:                                               ; preds = %16
  %26 = load ptr, ptr %3, align 8, !tbaa !15
  %27 = getelementptr inbounds nuw %struct.strscanner, ptr %26, i32 0, i32 5
  %28 = load i64, ptr %27, align 8, !tbaa !23
  %29 = inttoptr i64 %28 to ptr
  %30 = getelementptr inbounds nuw %struct.RRegexp, ptr %29, i32 0, i32 1
  %31 = load ptr, ptr %30, align 8, !tbaa !46
  %32 = call i32 @onig_foreach_name(ptr noundef %31, ptr noundef @named_captures_iter, ptr noundef %4)
  br label %33

33:                                               ; preds = %25, %16
  %34 = getelementptr inbounds nuw %struct.named_captures_data, ptr %4, i32 0, i32 1
  %35 = load i64, ptr %34, align 8, !tbaa !45
  call void @llvm.lifetime.end.p0(i64 16, ptr %4) #23
  call void @llvm.lifetime.end.p0(i64 8, ptr %3) #23
  ret i64 %35
}