; Function Attrs: nounwind sspstrong uwtable
define internal i64 @strscan_named_captures(i64 noundef %0) #0 {
  %2 = alloca %struct.named_captures_data, align 8
  call void @llvm.lifetime.start.p0(i64 16, ptr nonnull %2) #12
  %3 = tail call ptr @rb_check_typeddata(i64 noundef %0, ptr noundef nonnull @strscanner_type) #12
  %4 = getelementptr inbounds nuw i8, ptr %3, i64 8
  %5 = load i64, ptr %4, align 8, !tbaa !23
  %6 = icmp eq i64 %5, 4
  br i1 %6, label %7, label %9

7:                                                ; preds = %1
  %8 = load i64, ptr @rb_eArgError, align 8, !tbaa !10
  tail call void (i64, ptr, ...) @rb_raise(i64 noundef %8, ptr noundef nonnull @.str.66) #14
  unreachable

9:                                                ; preds = %1
  store i64 %0, ptr %2, align 8, !tbaa !103
  %10 = tail call i64 @rb_hash_new() #12
  %11 = getelementptr inbounds nuw i8, ptr %2, i64 8
  store i64 %10, ptr %11, align 8, !tbaa !105
  %12 = getelementptr inbounds nuw i8, ptr %3, i64 56
  %13 = load i64, ptr %12, align 8, !tbaa !24
  %14 = icmp eq i64 %13, 4
  br i1 %14, label %20, label %15

15:                                               ; preds = %9
  %16 = inttoptr i64 %13 to ptr
  %17 = getelementptr inbounds nuw i8, ptr %16, i64 16
  %18 = load ptr, ptr %17, align 8, !tbaa !79
  %19 = call i32 @onig_foreach_name(ptr noundef %18, ptr noundef nonnull @named_captures_iter, ptr noundef nonnull %2) #12
  %.pre = load i64, ptr %11, align 8, !tbaa !105
  br label %20

20:                                               ; preds = %15, %9
  %21 = phi i64 [ %.pre, %15 ], [ %10, %9 ]
  call void @llvm.lifetime.end.p0(i64 16, ptr nonnull %2) #12
  ret i64 %21
}